; Function Attrs: nounwind uwtable
define i32 @Bmc_MeshAddOneHotness2(ptr noundef %0, i32 noundef %1, i32 noundef %2) local_unnamed_addr #0 {
  %4 = alloca [100 x i32], align 16
  %5 = alloca [2 x i32], align 4
  call void @llvm.lifetime.start.p0(i64 400, ptr nonnull %4) #11
  %6 = icmp slt i32 %1, %2
  br i1 %6, label %.lr.ph, label %.loopexit27

.lr.ph:                                           ; preds = %3
  %7 = getelementptr i8, ptr %0, i64 328
  %.val = load ptr, ptr %7, align 8, !tbaa !3
  %8 = sext i32 %1 to i64
  %wide.trip.count = sext i32 %2 to i64
  br label %9

9:                                                ; preds = %.lr.ph, %17
  %indvars.iv = phi i64 [ %8, %.lr.ph ], [ %indvars.iv.next, %17 ]
  %.02229 = phi i32 [ 0, %.lr.ph ], [ %.123, %17 ]
  %10 = getelementptr inbounds i32, ptr %.val, i64 %indvars.iv
  %11 = load i32, ptr %10, align 4, !tbaa !22
  %.not = icmp eq i32 %11, 1
  br i1 %.not, label %12, label %17

12:                                               ; preds = %9
  %13 = add nsw i32 %.02229, 1
  %14 = sext i32 %.02229 to i64
  %15 = getelementptr inbounds [100 x i32], ptr %4, i64 0, i64 %14
  %16 = trunc nsw i64 %indvars.iv to i32
  store i32 %16, ptr %15, align 4, !tbaa !22
  br label %17

17:                                               ; preds = %9, %12
  %.123 = phi i32 [ %13, %12 ], [ %.02229, %9 ]
  %indvars.iv.next = add nsw i64 %indvars.iv, 1
  %exitcond.not = icmp eq i64 %indvars.iv.next, %wide.trip.count
  br i1 %exitcond.not, label %._crit_edge, label %9, !llvm.loop !23

._crit_edge:                                      ; preds = %17
  %18 = icmp slt i32 %.123, 2
  br i1 %18, label %.loopexit27, label %.preheader

.preheader:                                       ; preds = %._crit_edge
  %19 = getelementptr inbounds nuw i8, ptr %5, i64 4
  %20 = getelementptr inbounds nuw i8, ptr %5, i64 8
  %21 = zext nneg i32 %.123 to i64
  %wide.trip.count50 = zext nneg i32 %.123 to i64
  br label %23

.loopexit.loopexit:                               ; preds = %29
  %22 = add i32 %.02136, %indvars.iv42
  br label %.loopexit

.loopexit:                                        ; preds = %.loopexit.loopexit, %23
  %.1.lcssa = phi i32 [ %.02136, %23 ], [ %22, %.loopexit.loopexit ]
  %indvars.iv.next39 = add nuw nsw i64 %indvars.iv38, 1
  %exitcond51.not = icmp eq i64 %indvars.iv.next48, %wide.trip.count50
  br i1 %exitcond51.not, label %.loopexit27, label %23, !llvm.loop !25

23:                                               ; preds = %.preheader, %.loopexit
  %indvars.iv47 = phi i64 [ 0, %.preheader ], [ %indvars.iv.next48, %.loopexit ]
  %indvars.iv42.in = phi i32 [ %.123, %.preheader ], [ %indvars.iv42, %.loopexit ]
  %indvars.iv38 = phi i64 [ 1, %.preheader ], [ %indvars.iv.next39, %.loopexit ]
  %.02136 = phi i32 [ 0, %.preheader ], [ %.1.lcssa, %.loopexit ]
  %indvars.iv42 = add i32 %indvars.iv42.in, -1
  %indvars.iv.next48 = add nuw nsw i64 %indvars.iv47, 1
  %24 = icmp samesign ult i64 %indvars.iv.next48, %21
  br i1 %24, label %.lr.ph33, label %.loopexit

.lr.ph33:                                         ; preds = %23
  %25 = getelementptr inbounds nuw [100 x i32], ptr %4, i64 0, i64 %indvars.iv47
  %26 = load i32, ptr %25, align 4, !tbaa !22
  %27 = shl nsw i32 %26, 1
  %28 = or disjoint i32 %27, 1
  br label %29

29:                                               ; preds = %.lr.ph33, %29
  %indvars.iv40 = phi i64 [ %indvars.iv38, %.lr.ph33 ], [ %indvars.iv.next41, %29 ]
  call void @llvm.lifetime.start.p0(i64 8, ptr nonnull %5) #11
  store i32 %28, ptr %5, align 4, !tbaa !22
  %30 = getelementptr inbounds nuw [100 x i32], ptr %4, i64 0, i64 %indvars.iv40
  %31 = load i32, ptr %30, align 4, !tbaa !22
  %32 = shl nsw i32 %31, 1
  %33 = or disjoint i32 %32, 1
  store i32 %33, ptr %19, align 4, !tbaa !22
  %34 = call i32 @sat_solver_addclause(ptr noundef %0, ptr noundef nonnull %5, ptr noundef nonnull %20) #11
  call void @llvm.lifetime.end.p0(i64 8, ptr nonnull %5) #11
  %indvars.iv.next41 = add nuw nsw i64 %indvars.iv40, 1
  %exitcond46.not = icmp eq i64 %indvars.iv.next41, %wide.trip.count50
  br i1 %exitcond46.not, label %.loopexit.loopexit, label %29, !llvm.loop !26

.loopexit27:                                      ; preds = %.loopexit, %3, %._crit_edge
  %.0 = phi i32 [ 0, %._crit_edge ], [ 0, %3 ], [ %.1.lcssa, %.loopexit ]
  call void @llvm.lifetime.end.p0(i64 400, ptr nonnull %4) #11
  ret i32 %.0
}